target datalayout = "e-m:e-p270:32:32-p271:32:32-p272:64:64-i64:64-i128:128-f80:128-n8:16:32:64-S128"
target triple = "x86_64-pc-linux-gnu"

%"struct.ue2::ParseMode" = type { i8, i8, i8, i8, i8, i8 }
%"class.ue2::ComponentClass" = type <{ %"class.ue2::Component", i8, %"struct.ue2::ParseMode", i8, i32, i8, [3 x i8] }>
%"class.ue2::Component" = type { ptr, i32, i32 }

; Function Attrs: mustprogress uwtable
define hidden void @_ZN3ue214ComponentClassC2ERKNS_9ParseModeE(ptr noundef nonnull align 8 dereferenceable(29) %0, ptr noundef nonnull align 1 dereferenceable(6) %1) unnamed_addr #0 align 2 {
  %3 = alloca ptr, align 8
  %4 = alloca ptr, align 8
  store ptr %0, ptr %3, align 8
  store ptr %1, ptr %4, align 8
  %5 = load ptr, ptr %3, align 8
  call void @_ZN3ue29ComponentC2Ev(ptr noundef nonnull align 8 dereferenceable(16) %5)
  store ptr getelementptr inbounds inrange(-16, 160) ({ [22 x ptr] }, ptr @_ZTVN3ue214ComponentClassE, i32 0, i32 0, i32 2), ptr %5, align 8
  %6 = getelementptr inbounds nuw %"class.ue2::ComponentClass", ptr %5, i32 0, i32 1
  store i8 0, ptr %6, align 8
  %7 = getelementptr inbounds nuw %"class.ue2::ComponentClass", ptr %5, i32 0, i32 2
  %8 = load ptr, ptr %4, align 8
  call void @llvm.memcpy.p0.p0.i64(ptr align 1 %7, ptr align 1 %8, i64 6, i1 false)
  %9 = getelementptr inbounds nuw %"class.ue2::ComponentClass", ptr %5, i32 0, i32 3
  store i8 0, ptr %9, align 1
  %10 = getelementptr inbounds nuw %"class.ue2::ComponentClass", ptr %5, i32 0, i32 4
  store i32 -1, ptr %10, align 8
  %11 = getelementptr inbounds nuw %"class.ue2::ComponentClass", ptr %5, i32 0, i32 5
  store i8 0, ptr %11, align 4
  ret void
}