; Function Attrs: mustprogress uwtable
define hidden void @_ZN3ue214ComponentClassC2ERKNS_9ParseModeE(ptr noundef nonnull align 8 dereferenceable(29) %0, ptr noundef nonnull readonly align 1 captures(none) dereferenceable(6) %1) unnamed_addr #0 align 2 {
  tail call void @_ZN3ue29ComponentC2Ev(ptr noundef nonnull align 8 dereferenceable(16) %0)
  store ptr getelementptr inbounds nuw inrange(-16, 160) (i8, ptr @_ZTVN3ue214ComponentClassE, i64 16), ptr %0, align 8
  %3 = getelementptr inbounds nuw i8, ptr %0, i64 16
  store i8 0, ptr %3, align 8
  %4 = getelementptr inbounds nuw i8, ptr %0, i64 17
  tail call void @llvm.memcpy.p0.p0.i64(ptr noundef nonnull align 1 dereferenceable(6) %4, ptr noundef nonnull align 1 dereferenceable(6) %1, i64 6, i1 false)
  %5 = getelementptr inbounds nuw i8, ptr %0, i64 23
  store i8 0, ptr %5, align 1
  %6 = getelementptr inbounds nuw i8, ptr %0, i64 24
  store i32 -1, ptr %6, align 8
  %7 = getelementptr inbounds nuw i8, ptr %0, i64 28
  store i8 0, ptr %7, align 4
  ret void
}